ccollections
deque
p1
((lp2
I52
aS'sticking it to the man'
p3
aS'he who smelt it'
p4
aI40
aS'showboating'
p5
aS'the iPhone manual'
p6
aS'Grants PLACE PEOPLE (the number of SAME being equal to the least populous state) in the Electoral College'
p7
aI43
aS'a spooky castle'
p8
aS'Disneyworld mascots'
p9
aI10
aS'a creationist dinosaur park'
p10
aS'BB King'
p11
aS'Limits the VERBTGTED of the Vice President; the Vice President may not VERB OBJECTS except in EVENTS'
p12
aI16
aS'inditement'
p13
aS'listen to k-pop songs about'
p14
aS'stale bagels'
p15
aS'alien attacks'
p16
aI94
aS'foreclosure'
p17
aS'overthrow'
p18
aS'fenced goods'
p19
aS"Veteran's Day"
p20
aS'Defines VERBTGTED, contains the CAP OBJECTS Clause, the OBJECTS NOCAP Clause, and deals with post-VERBTGTED issues'
p21
aI85
aS'moistening'
p22
aS'criminal elements'
p23
aS'double-decker burgers'
p24
aS'defeat'
p25
aI30
tRp26
.